target datalayout = "e-m:e-p270:32:32-p271:32:32-p272:64:64-i64:64-i128:128-f80:128-n8:16:32:64-S128"
target triple = "x86_64-pc-linux-gnu"

%struct._zval_struct = type { %union._zend_value, %union.anon, %union.anon.2 }
%union._zend_value = type { i64 }
%union.anon = type { i32 }
%union.anon.2 = type { i32 }
%struct._zend_refcounted_h = type { i32, %union.anon.3 }
%union.anon.3 = type { i32 }
%struct._spl_dllist_object = type { ptr, ptr, i32, i32, ptr, ptr, ptr, ptr, ptr, ptr, %struct._zend_object }
%struct._zend_object = type { %struct._zend_refcounted_h, i32, i32, ptr, ptr, ptr, [1 x %struct._zval_struct] }
%struct._spl_dllist_it = type { %struct._zend_object_iterator, ptr, i32, i32 }
%struct._zend_object_iterator = type { %struct._zend_object, %struct._zval_struct, ptr, i64 }

; Function Attrs: inlinehint nounwind uwtable
define internal ptr @spl_dllist_from_obj(ptr noundef %0) #4 {
  %2 = alloca ptr, align 8
  store ptr %0, ptr %2, align 8, !tbaa !54
  %3 = load ptr, ptr %2, align 8, !tbaa !54
  %4 = getelementptr inbounds i8, ptr %3, i64 -72
  ret ptr %4
}

; Function Attrs: nounwind uwtable
define internal void @spl_dllist_it_move_forward(ptr noundef %0) #0 {
  %2 = alloca ptr, align 8
  %3 = alloca ptr, align 8
  %4 = alloca ptr, align 8
  store ptr %0, ptr %2, align 8, !tbaa !148
  call void @llvm.lifetime.start.p0(i64 8, ptr %3) #14
  %5 = load ptr, ptr %2, align 8, !tbaa !148
  store ptr %5, ptr %3, align 8, !tbaa !116
  call void @llvm.lifetime.start.p0(i64 8, ptr %4) #14
  %6 = load ptr, ptr %2, align 8, !tbaa !148
  %7 = getelementptr inbounds nuw %struct._zend_object_iterator, ptr %6, i32 0, i32 1
  %8 = getelementptr inbounds nuw %struct._zval_struct, ptr %7, i32 0, i32 0
  %9 = load ptr, ptr %8, align 8, !tbaa !11
  %10 = call ptr @spl_dllist_from_obj(ptr noundef %9)
  store ptr %10, ptr %4, align 8, !tbaa !45
  %11 = load ptr, ptr %3, align 8, !tbaa !116
  %12 = getelementptr inbounds nuw %struct._spl_dllist_it, ptr %11, i32 0, i32 1
  %13 = load ptr, ptr %3, align 8, !tbaa !116
  %14 = getelementptr inbounds nuw %struct._spl_dllist_it, ptr %13, i32 0, i32 2
  %15 = load ptr, ptr %4, align 8, !tbaa !45
  %16 = getelementptr inbounds nuw %struct._spl_dllist_object, ptr %15, i32 0, i32 0
  %17 = load ptr, ptr %16, align 8, !tbaa !47
  %18 = load ptr, ptr %3, align 8, !tbaa !116
  %19 = getelementptr inbounds nuw %struct._spl_dllist_it, ptr %18, i32 0, i32 3
  %20 = load i32, ptr %19, align 4, !tbaa !124
  call void @spl_dllist_it_helper_move_forward(ptr noundef %12, ptr noundef %14, ptr noundef %17, i32 noundef %20)
  call void @llvm.lifetime.end.p0(i64 8, ptr %4) #14
  call void @llvm.lifetime.end.p0(i64 8, ptr %3) #14
  ret void
}