; Function Attrs: nounwind uwtable
define internal void @spl_dllist_it_move_forward(ptr noundef captures(none) %0) #0 {
  %2 = getelementptr inbounds nuw i8, ptr %0, i64 56
  %3 = load ptr, ptr %2, align 8, !tbaa !4
  %4 = getelementptr inbounds i8, ptr %3, i64 -72
  %5 = getelementptr inbounds nuw i8, ptr %0, i64 88
  %6 = getelementptr inbounds nuw i8, ptr %0, i64 96
  %7 = load ptr, ptr %4, align 8, !tbaa !43
  %8 = getelementptr inbounds nuw i8, ptr %0, i64 100
  %9 = load i32, ptr %8, align 4, !tbaa !119
  tail call fastcc void @spl_dllist_it_helper_move_forward(ptr noundef nonnull %5, ptr noundef nonnull %6, ptr noundef %7, i32 noundef %9)
  ret void
}